target datalayout = "e-m:e-p270:32:32-p271:32:32-p272:64:64-i64:64-i128:128-f80:128-n8:16:32:64-S128"
target triple = "x86_64-pc-linux-gnu"

%"struct.std::pair.324" = type <{ ptr, i32, [4 x i8] }>
%class.anon.329 = type { ptr, ptr, ptr }
%"struct.__gnu_cxx::__ops::_Iter_comp_iter" = type { %class.anon.329 }
%"struct.__gnu_cxx::__ops::_Iter_comp_val" = type { %class.anon.329 }

; Function Attrs: mustprogress nounwind uwtable
define internal noundef zeroext i1 @"_ZN9__gnu_cxx5__ops14_Iter_comp_valIZL28predictValueUseListOrderImplPKN4llvm5ValueEPKNS2_8FunctionEjRKN12_GLOBAL__N_18OrderMapERSt6vectorINS2_12UseListOrderESaISE_EEE3$_0EclIPSt4pairIPKNS2_3UseEjESP_EEbT_RT0_"(ptr noundef nonnull align 8 dereferenceable(24) %0, ptr noundef %1, ptr noundef nonnull align 8 dereferenceable(12) %2) #0 align 2 {
  %4 = alloca ptr, align 8
  %5 = alloca ptr, align 8
  %6 = alloca ptr, align 8
  store ptr %0, ptr %4, align 8
  store ptr %1, ptr %5, align 8
  store ptr %2, ptr %6, align 8
  %7 = load ptr, ptr %4, align 8
  %8 = getelementptr inbounds nuw %"struct.__gnu_cxx::__ops::_Iter_comp_val", ptr %7, i32 0, i32 0
  %9 = load ptr, ptr %5, align 8
  %10 = load ptr, ptr %6, align 8
  %11 = call noundef zeroext i1 @"_ZZL28predictValueUseListOrderImplPKN4llvm5ValueEPKNS_8FunctionEjRKN12_GLOBAL__N_18OrderMapERSt6vectorINS_12UseListOrderESaISB_EEENK3$_0clERKSt4pairIPKNS_3UseEjESM_"(ptr noundef nonnull align 8 dereferenceable(24) %8, ptr noundef nonnull align 8 dereferenceable(12) %9, ptr noundef nonnull align 8 dereferenceable(12) %10)
  ret i1 %11
}

; Function Attrs: mustprogress nounwind uwtable
define internal void @"_ZSt11__push_heapIPSt4pairIPKN4llvm3UseEjElS5_N9__gnu_cxx5__ops14_Iter_comp_valIZL28predictValueUseListOrderImplPKNS1_5ValueEPKNS1_8FunctionEjRKN12_GLOBAL__N_18OrderMapERSt6vectorINS1_12UseListOrderESaISL_EEE3$_0EEEvT_T0_SS_T1_RT2_"(ptr noundef %0, i64 noundef %1, i64 noundef %2, ptr %3, i32 %4, ptr noundef nonnull align 8 dereferenceable(24) %5) #0 {
  %7 = alloca %"struct.std::pair.324", align 8
  %8 = alloca ptr, align 8
  %9 = alloca i64, align 8
  %10 = alloca i64, align 8
  %11 = alloca ptr, align 8
  %12 = alloca i64, align 8
  %13 = getelementptr inbounds nuw { ptr, i32 }, ptr %7, i32 0, i32 0
  store ptr %3, ptr %13, align 8
  %14 = getelementptr inbounds nuw { ptr, i32 }, ptr %7, i32 0, i32 1
  store i32 %4, ptr %14, align 8
  store ptr %0, ptr %8, align 8
  store i64 %1, ptr %9, align 8
  store i64 %2, ptr %10, align 8
  store ptr %5, ptr %11, align 8
  %15 = load i64, ptr %9, align 8
  %16 = sub nsw i64 %15, 1
  %17 = sdiv i64 %16, 2
  store i64 %17, ptr %12, align 8
  br label %18

18:                                               ; preds = %30, %6
  %19 = load i64, ptr %9, align 8
  %20 = load i64, ptr %10, align 8
  %21 = icmp sgt i64 %19, %20
  br i1 %21, label %22, label %28

22:                                               ; preds = %18
  %23 = load ptr, ptr %11, align 8
  %24 = load ptr, ptr %8, align 8
  %25 = load i64, ptr %12, align 8
  %26 = getelementptr inbounds %"struct.std::pair.324", ptr %24, i64 %25
  %27 = call noundef zeroext i1 @"_ZN9__gnu_cxx5__ops14_Iter_comp_valIZL28predictValueUseListOrderImplPKN4llvm5ValueEPKNS2_8FunctionEjRKN12_GLOBAL__N_18OrderMapERSt6vectorINS2_12UseListOrderESaISE_EEE3$_0EclIPSt4pairIPKNS2_3UseEjESP_EEbT_RT0_"(ptr noundef nonnull align 8 dereferenceable(24) %23, ptr noundef %26, ptr noundef nonnull align 8 dereferenceable(12) %7)
  br label %28

28:                                               ; preds = %22, %18
  %29 = phi i1 [ false, %18 ], [ %27, %22 ]
  br i1 %29, label %30, label %42

30:                                               ; preds = %28
  %31 = load ptr, ptr %8, align 8
  %32 = load i64, ptr %12, align 8
  %33 = getelementptr inbounds %"struct.std::pair.324", ptr %31, i64 %32
  %34 = load ptr, ptr %8, align 8
  %35 = load i64, ptr %9, align 8
  %36 = getelementptr inbounds %"struct.std::pair.324", ptr %34, i64 %35
  %37 = call noundef nonnull align 8 dereferenceable(12) ptr @_ZNSt4pairIPKN4llvm3UseEjEaSEOS4_(ptr noundef nonnull align 8 dereferenceable(12) %36, ptr noundef nonnull align 8 dereferenceable(12) %33) #12
  %38 = load i64, ptr %12, align 8
  store i64 %38, ptr %9, align 8
  %39 = load i64, ptr %9, align 8
  %40 = sub nsw i64 %39, 1
  %41 = sdiv i64 %40, 2
  store i64 %41, ptr %12, align 8
  br label %18, !llvm.loop !23

42:                                               ; preds = %28
  %43 = load ptr, ptr %8, align 8
  %44 = load i64, ptr %9, align 8
  %45 = getelementptr inbounds %"struct.std::pair.324", ptr %43, i64 %44
  %46 = call noundef nonnull align 8 dereferenceable(12) ptr @_ZNSt4pairIPKN4llvm3UseEjEaSEOS4_(ptr noundef nonnull align 8 dereferenceable(12) %45, ptr noundef nonnull align 8 dereferenceable(12) %7) #12
  ret void
}

; Function Attrs: mustprogress nounwind uwtable
define internal void @"_ZN9__gnu_cxx5__ops14_Iter_comp_valIZL28predictValueUseListOrderImplPKN4llvm5ValueEPKNS2_8FunctionEjRKN12_GLOBAL__N_18OrderMapERSt6vectorINS2_12UseListOrderESaISE_EEE3$_0EC2EONS0_15_Iter_comp_iterISI_EE"(ptr noundef nonnull align 8 dereferenceable(24) %0, ptr noundef nonnull align 8 dereferenceable(24) %1) unnamed_addr #0 align 2 {
  %3 = alloca ptr, align 8
  %4 = alloca ptr, align 8
  store ptr %0, ptr %3, align 8
  store ptr %1, ptr %4, align 8
  %5 = load ptr, ptr %3, align 8
  %6 = getelementptr inbounds nuw %"struct.__gnu_cxx::__ops::_Iter_comp_val", ptr %5, i32 0, i32 0
  %7 = load ptr, ptr %4, align 8
  %8 = getelementptr inbounds nuw %"struct.__gnu_cxx::__ops::_Iter_comp_iter", ptr %7, i32 0, i32 0
  call void @llvm.memcpy.p0.p0.i64(ptr align 8 %6, ptr align 8 %8, i64 24, i1 false)
  ret void
}

; Function Attrs: mustprogress nounwind uwtable
define linkonce_odr hidden noundef nonnull align 8 dereferenceable(12) ptr @_ZNSt4pairIPKN4llvm3UseEjEaSEOS4_(ptr noundef nonnull align 8 dereferenceable(12) %0, ptr noundef nonnull align 8 dereferenceable(12) %1) #0 comdat align 2 {
  %3 = alloca ptr, align 8
  %4 = alloca ptr, align 8
  store ptr %0, ptr %3, align 8
  store ptr %1, ptr %4, align 8
  %5 = load ptr, ptr %3, align 8
  %6 = load ptr, ptr %4, align 8
  %7 = getelementptr inbounds nuw %"struct.std::pair.324", ptr %6, i32 0, i32 0
  %8 = load ptr, ptr %7, align 8
  %9 = getelementptr inbounds nuw %"struct.std::pair.324", ptr %5, i32 0, i32 0
  store ptr %8, ptr %9, align 8
  %10 = load ptr, ptr %4, align 8
  %11 = getelementptr inbounds nuw %"struct.std::pair.324", ptr %10, i32 0, i32 1
  %12 = load i32, ptr %11, align 4
  %13 = getelementptr inbounds nuw %"struct.std::pair.324", ptr %5, i32 0, i32 1
  store i32 %12, ptr %13, align 8
  ret ptr %5
}

; Function Attrs: mustprogress nounwind uwtable
define internal noundef zeroext i1 @"_ZN9__gnu_cxx5__ops15_Iter_comp_iterIZL28predictValueUseListOrderImplPKN4llvm5ValueEPKNS2_8FunctionEjRKN12_GLOBAL__N_18OrderMapERSt6vectorINS2_12UseListOrderESaISE_EEE3$_0EclIPSt4pairIPKNS2_3UseEjESQ_EEbT_T0_"(ptr noundef nonnull align 8 dereferenceable(24) %0, ptr noundef %1, ptr noundef %2) #0 align 2 {
  %4 = alloca ptr, align 8
  %5 = alloca ptr, align 8
  %6 = alloca ptr, align 8
  store ptr %0, ptr %4, align 8
  store ptr %1, ptr %5, align 8
  store ptr %2, ptr %6, align 8
  %7 = load ptr, ptr %4, align 8
  %8 = getelementptr inbounds nuw %"struct.__gnu_cxx::__ops::_Iter_comp_iter", ptr %7, i32 0, i32 0
  %9 = load ptr, ptr %5, align 8
  %10 = load ptr, ptr %6, align 8
  %11 = call noundef zeroext i1 @"_ZZL28predictValueUseListOrderImplPKN4llvm5ValueEPKNS_8FunctionEjRKN12_GLOBAL__N_18OrderMapERSt6vectorINS_12UseListOrderESaISB_EEENK3$_0clERKSt4pairIPKNS_3UseEjESM_"(ptr noundef nonnull align 8 dereferenceable(24) %8, ptr noundef nonnull align 8 dereferenceable(12) %9, ptr noundef nonnull align 8 dereferenceable(12) %10)
  ret i1 %11
}

; Function Attrs: mustprogress nounwind uwtable
define internal void @"_ZSt13__adjust_heapIPSt4pairIPKN4llvm3UseEjElS5_N9__gnu_cxx5__ops15_Iter_comp_iterIZL28predictValueUseListOrderImplPKNS1_5ValueEPKNS1_8FunctionEjRKN12_GLOBAL__N_18OrderMapERSt6vectorINS1_12UseListOrderESaISL_EEE3$_0EEEvT_T0_SS_T1_T2_"(ptr noundef %0, i64 noundef %1, i64 noundef %2, ptr %3, i32 %4, ptr noundef byval(%"struct.__gnu_cxx::__ops::_Iter_comp_iter") align 8 %5) #0 {
  %7 = alloca %"struct.std::pair.324", align 8
  %8 = alloca ptr, align 8
  %9 = alloca i64, align 8
  %10 = alloca i64, align 8
  %11 = alloca i64, align 8
  %12 = alloca i64, align 8
  %13 = alloca %"struct.__gnu_cxx::__ops::_Iter_comp_val", align 8
  %14 = alloca %"struct.std::pair.324", align 8
  %15 = getelementptr inbounds nuw { ptr, i32 }, ptr %7, i32 0, i32 0
  store ptr %3, ptr %15, align 8
  %16 = getelementptr inbounds nuw { ptr, i32 }, ptr %7, i32 0, i32 1
  store i32 %4, ptr %16, align 8
  store ptr %0, ptr %8, align 8
  store i64 %1, ptr %9, align 8
  store i64 %2, ptr %10, align 8
  %17 = load i64, ptr %9, align 8
  store i64 %17, ptr %11, align 8
  %18 = load i64, ptr %9, align 8
  store i64 %18, ptr %12, align 8
  br label %19

19:                                               ; preds = %40, %6
  %20 = load i64, ptr %12, align 8
  %21 = load i64, ptr %10, align 8
  %22 = sub nsw i64 %21, 1
  %23 = sdiv i64 %22, 2
  %24 = icmp slt i64 %20, %23
  br i1 %24, label %25, label %49

25:                                               ; preds = %19
  %26 = load i64, ptr %12, align 8
  %27 = add nsw i64 %26, 1
  %28 = mul nsw i64 2, %27
  store i64 %28, ptr %12, align 8
  %29 = load ptr, ptr %8, align 8
  %30 = load i64, ptr %12, align 8
  %31 = getelementptr inbounds %"struct.std::pair.324", ptr %29, i64 %30
  %32 = load ptr, ptr %8, align 8
  %33 = load i64, ptr %12, align 8
  %34 = sub nsw i64 %33, 1
  %35 = getelementptr inbounds %"struct.std::pair.324", ptr %32, i64 %34
  %36 = call noundef zeroext i1 @"_ZN9__gnu_cxx5__ops15_Iter_comp_iterIZL28predictValueUseListOrderImplPKN4llvm5ValueEPKNS2_8FunctionEjRKN12_GLOBAL__N_18OrderMapERSt6vectorINS2_12UseListOrderESaISE_EEE3$_0EclIPSt4pairIPKNS2_3UseEjESQ_EEbT_T0_"(ptr noundef nonnull align 8 dereferenceable(24) %5, ptr noundef %31, ptr noundef %35)
  br i1 %36, label %37, label %40

37:                                               ; preds = %25
  %38 = load i64, ptr %12, align 8
  %39 = add nsw i64 %38, -1
  store i64 %39, ptr %12, align 8
  br label %40

40:                                               ; preds = %37, %25
  %41 = load ptr, ptr %8, align 8
  %42 = load i64, ptr %12, align 8
  %43 = getelementptr inbounds %"struct.std::pair.324", ptr %41, i64 %42
  %44 = load ptr, ptr %8, align 8
  %45 = load i64, ptr %9, align 8
  %46 = getelementptr inbounds %"struct.std::pair.324", ptr %44, i64 %45
  %47 = call noundef nonnull align 8 dereferenceable(12) ptr @_ZNSt4pairIPKN4llvm3UseEjEaSEOS4_(ptr noundef nonnull align 8 dereferenceable(12) %46, ptr noundef nonnull align 8 dereferenceable(12) %43) #12
  %48 = load i64, ptr %12, align 8
  store i64 %48, ptr %9, align 8
  br label %19, !llvm.loop !22

49:                                               ; preds = %19
  %50 = load i64, ptr %10, align 8
  %51 = and i64 %50, 1
  %52 = icmp eq i64 %51, 0
  br i1 %52, label %53, label %73

53:                                               ; preds = %49
  %54 = load i64, ptr %12, align 8
  %55 = load i64, ptr %10, align 8
  %56 = sub nsw i64 %55, 2
  %57 = sdiv i64 %56, 2
  %58 = icmp eq i64 %54, %57
  br i1 %58, label %59, label %73

59:                                               ; preds = %53
  %60 = load i64, ptr %12, align 8
  %61 = add nsw i64 %60, 1
  %62 = mul nsw i64 2, %61
  store i64 %62, ptr %12, align 8
  %63 = load ptr, ptr %8, align 8
  %64 = load i64, ptr %12, align 8
  %65 = sub nsw i64 %64, 1
  %66 = getelementptr inbounds %"struct.std::pair.324", ptr %63, i64 %65
  %67 = load ptr, ptr %8, align 8
  %68 = load i64, ptr %9, align 8
  %69 = getelementptr inbounds %"struct.std::pair.324", ptr %67, i64 %68
  %70 = call noundef nonnull align 8 dereferenceable(12) ptr @_ZNSt4pairIPKN4llvm3UseEjEaSEOS4_(ptr noundef nonnull align 8 dereferenceable(12) %69, ptr noundef nonnull align 8 dereferenceable(12) %66) #12
  %71 = load i64, ptr %12, align 8
  %72 = sub nsw i64 %71, 1
  store i64 %72, ptr %9, align 8
  br label %73

73:                                               ; preds = %59, %53, %49
  call void @"_ZN9__gnu_cxx5__ops14_Iter_comp_valIZL28predictValueUseListOrderImplPKN4llvm5ValueEPKNS2_8FunctionEjRKN12_GLOBAL__N_18OrderMapERSt6vectorINS2_12UseListOrderESaISE_EEE3$_0EC2EONS0_15_Iter_comp_iterISI_EE"(ptr noundef nonnull align 8 dereferenceable(24) %13, ptr noundef nonnull align 8 dereferenceable(24) %5)
  %74 = load ptr, ptr %8, align 8
  %75 = load i64, ptr %9, align 8
  %76 = load i64, ptr %11, align 8
  call void @llvm.memcpy.p0.p0.i64(ptr align 8 %14, ptr align 8 %7, i64 16, i1 false)
  %77 = getelementptr inbounds nuw { ptr, i32 }, ptr %14, i32 0, i32 0
  %78 = load ptr, ptr %77, align 8
  %79 = getelementptr inbounds nuw { ptr, i32 }, ptr %14, i32 0, i32 1
  %80 = load i32, ptr %79, align 8
  call void @"_ZSt11__push_heapIPSt4pairIPKN4llvm3UseEjElS5_N9__gnu_cxx5__ops14_Iter_comp_valIZL28predictValueUseListOrderImplPKNS1_5ValueEPKNS1_8FunctionEjRKN12_GLOBAL__N_18OrderMapERSt6vectorINS1_12UseListOrderESaISL_EEE3$_0EEEvT_T0_SS_T1_RT2_"(ptr noundef %74, i64 noundef %75, i64 noundef %76, ptr %78, i32 %80, ptr noundef nonnull align 8 dereferenceable(24) %13)
  ret void
}